; Function Attrs: mustprogress uwtable
define noundef nonnull align 8 dereferenceable(64) ptr @_ZNK6icu_759LocaleKey9currentIDERNS_13UnicodeStringE(ptr noundef nonnull align 8 dereferenceable(272) %this, ptr noundef nonnull returned align 8 dereferenceable(64) %result) unnamed_addr #1 align 2 {
entry:
  %fUnion.i = getelementptr inbounds i8, ptr %this, i64 216
  %0 = load i16, ptr %fUnion.i, align 8
  %conv2.i2 = and i16 %0, 1
  %tobool.not = icmp eq i16 %conv2.i2, 0
  br i1 %tobool.not, label %if.then, label %if.end

if.then:                                          ; preds = %entry
  %_currentID = getelementptr inbounds i8, ptr %this, i64 208
  %cmp.i.i.i = icmp slt i16 %0, 0
  %1 = ashr i16 %0, 5
  %shr.i.i.i = sext i16 %1 to i32
  %fLength.i.i = getelementptr inbounds i8, ptr %this, i64 220
  %2 = load i32, ptr %fLength.i.i, align 4
  %cond.i.i = select i1 %cmp.i.i.i, i32 %2, i32 %shr.i.i.i
  %call2.i = tail call noundef nonnull align 8 dereferenceable(64) ptr @_ZN6icu_7513UnicodeString8doAppendERKS0_ii(ptr noundef nonnull align 8 dereferenceable(64) %result, ptr noundef nonnull align 8 dereferenceable(64) %_currentID, i32 noundef 0, i32 noundef %cond.i.i)
  br label %if.end

if.end:                                           ; preds = %if.then, %entry
  ret ptr %result
}